target datalayout = "e-m:e-p270:32:32-p271:32:32-p272:64:64-i64:64-i128:128-f80:128-n8:16:32:64-S128"
target triple = "x86_64-pc-linux-gnu"

%class.Thread = type { %class.ThreadShadow.base, i64, [43 x i64], ptr, ptr, i32, ptr, i64, i64, %class.ThreadLocalAllocBuffer, i64, %class.ThreadHeapSampler, %class.ThreadStatisticalInfo, %class.JfrThreadLocal, ptr, ptr, ptr, ptr, ptr, ptr, i64, i32, i32, ptr, i32, i32, i32, i32, i8, ptr }
%class.ThreadShadow.base = type <{ ptr, ptr, ptr, i32 }>
%class.ThreadLocalAllocBuffer = type <{ ptr, ptr, ptr, ptr, ptr, i64, i64, i64, i64, i32, i32, i32, i32, i64, %class.AdaptiveWeightedAverage, [4 x i8] }>
%class.AdaptiveWeightedAverage = type { float, i32, i32, i8, float }
%class.ThreadHeapSampler = type { i64 }
%class.ThreadStatisticalInfo = type { i64, i64 }
%class.JfrThreadLocal = type <{ ptr, ptr, ptr, ptr, ptr, ptr, ptr, ptr, ptr, ptr, %class.RefCountHandle, i64, i64, i64, i64, i64, i64, i64, i64, i64, i64, i64, i32, i32, i32, i16, i8, i8, i8, i8, i8, [5 x i8] }>
%class.RefCountHandle = type { ptr }
%class.JfrThreadSampler = type <{ %class.NonJavaThread, %class.Semaphore, ptr, ptr, ptr, ptr, i64, i64, i64, i32, i32, i8, [7 x i8] }>
%class.NonJavaThread = type { %class.Thread, ptr }
%class.Semaphore = type { %class.PosixSemaphore }
%class.PosixSemaphore = type { %union.sem_t }
%union.sem_t = type { i64, [24 x i8] }

; Function Attrs: mustprogress nounwind uwtable
define linkonce_odr hidden noundef ptr @_ZN11JfrCHeapObj9new_arrayI13JfrStackFrameEEPT_m(i64 noundef %0) #1 comdat align 2 {
  %2 = alloca i64, align 8
  %3 = alloca ptr, align 8
  store i64 %0, ptr %2, align 8
  %4 = load i64, ptr %2, align 8
  %5 = call noundef ptr @_ZN11JfrCHeapObj23allocate_array_noinlineEmm(i64 noundef %4, i64 noundef 32)
  store ptr %5, ptr %3, align 8
  %6 = load ptr, ptr %3, align 8
  %7 = load i64, ptr %2, align 8
  %8 = mul i64 32, %7
  call void @_ZN11JfrCHeapObj20on_memory_allocationEPKvm(ptr noundef %6, i64 noundef %8)
  %9 = load ptr, ptr %3, align 8
  ret ptr %9
}

; Function Attrs: mustprogress nounwind uwtable
define linkonce_odr hidden void @_ZN9SemaphoreC2Ej(ptr noundef nonnull align 8 dereferenceable(32) %0, i32 noundef %1) unnamed_addr #1 comdat align 2 {
  %3 = alloca ptr, align 8
  %4 = alloca i32, align 4
  store ptr %0, ptr %3, align 8
  store i32 %1, ptr %4, align 4
  %5 = load ptr, ptr %3, align 8
  %6 = getelementptr inbounds %class.Semaphore, ptr %5, i32 0, i32 0
  %7 = load i32, ptr %4, align 4
  call void @_ZN14PosixSemaphoreC1Ej(ptr noundef nonnull align 8 dereferenceable(32) %6, i32 noundef %7)
  ret void
}

; Function Attrs: mustprogress nounwind uwtable
define hidden void @_ZN16JfrThreadSamplerC2Ellj(ptr noundef nonnull align 8 dereferenceable(993) %0, i64 noundef %1, i64 noundef %2, i32 noundef %3) unnamed_addr #1 align 2 {
  %5 = alloca ptr, align 8
  %6 = alloca i64, align 8
  %7 = alloca i64, align 8
  %8 = alloca i32, align 4
  store ptr %0, ptr %5, align 8
  store i64 %1, ptr %6, align 8
  store i64 %2, ptr %7, align 8
  store i32 %3, ptr %8, align 4
  %9 = load ptr, ptr %5, align 8
  call void @_ZN13NonJavaThreadC2Ev(ptr noundef nonnull align 8 dereferenceable(896) %9)
  store ptr getelementptr inbounds inrange(-16, 216) ({ [29 x ptr] }, ptr @_ZTV16JfrThreadSampler, i32 0, i32 0, i32 2), ptr %9, align 8
  %10 = getelementptr inbounds %class.JfrThreadSampler, ptr %9, i32 0, i32 1
  call void @_ZN9SemaphoreC2Ej(ptr noundef nonnull align 8 dereferenceable(32) %10, i32 noundef 0)
  %11 = getelementptr inbounds %class.JfrThreadSampler, ptr %9, i32 0, i32 2
  store ptr null, ptr %11, align 8
  %12 = getelementptr inbounds %class.JfrThreadSampler, ptr %9, i32 0, i32 3
  %13 = load i32, ptr %8, align 4
  %14 = zext i32 %13 to i64
  %15 = call noundef ptr @_ZN11JfrCHeapObj9new_arrayI13JfrStackFrameEEPT_m(i64 noundef %14)
  store ptr %15, ptr %12, align 8
  %16 = getelementptr inbounds %class.JfrThreadSampler, ptr %9, i32 0, i32 4
  store ptr null, ptr %16, align 8
  %17 = getelementptr inbounds %class.JfrThreadSampler, ptr %9, i32 0, i32 5
  store ptr null, ptr %17, align 8
  %18 = getelementptr inbounds %class.JfrThreadSampler, ptr %9, i32 0, i32 6
  %19 = load i64, ptr %6, align 8
  store i64 %19, ptr %18, align 8
  %20 = getelementptr inbounds %class.JfrThreadSampler, ptr %9, i32 0, i32 7
  %21 = load i64, ptr %7, align 8
  store i64 %21, ptr %20, align 8
  %22 = getelementptr inbounds %class.JfrThreadSampler, ptr %9, i32 0, i32 8
  %23 = load i32, ptr %8, align 4
  %24 = mul i32 %23, 2
  %25 = mul i32 %24, 8
  %26 = zext i32 %25 to i64
  store i64 %26, ptr %22, align 8
  %27 = getelementptr inbounds %class.JfrThreadSampler, ptr %9, i32 0, i32 9
  store i32 -1, ptr %27, align 8
  %28 = getelementptr inbounds %class.JfrThreadSampler, ptr %9, i32 0, i32 10
  %29 = load i32, ptr %8, align 4
  store i32 %29, ptr %28, align 4
  %30 = getelementptr inbounds %class.JfrThreadSampler, ptr %9, i32 0, i32 11
  store volatile i8 1, ptr %30, align 8
  ret void
}