; Function Attrs: mustprogress nounwind uwtable
define hidden void @_ZN16JfrThreadSamplerC2Ellj(ptr noundef nonnull align 8 dereferenceable(993) %0, i64 noundef %1, i64 noundef %2, i32 noundef %3) unnamed_addr #0 align 2 {
  tail call void @_ZN13NonJavaThreadC2Ev(ptr noundef nonnull align 8 dereferenceable(896) %0) #18
  store ptr getelementptr inbounds inrange(-16, 216) (i8, ptr @_ZTV16JfrThreadSampler, i64 16), ptr %0, align 8
  %5 = getelementptr inbounds i8, ptr %0, i64 896
  tail call void @_ZN14PosixSemaphoreC1Ej(ptr noundef nonnull align 8 dereferenceable(32) %5, i32 noundef 0) #18
  %6 = getelementptr inbounds i8, ptr %0, i64 928
  store ptr null, ptr %6, align 8
  %7 = getelementptr inbounds i8, ptr %0, i64 936
  %8 = zext i32 %3 to i64
  %9 = tail call noundef ptr @_ZN11JfrCHeapObj23allocate_array_noinlineEmm(i64 noundef %8, i64 noundef 32) #18
  %10 = shl nuw nsw i64 %8, 5
  tail call void @_ZN11JfrCHeapObj20on_memory_allocationEPKvm(ptr noundef %9, i64 noundef %10) #18
  store ptr %9, ptr %7, align 8
  %11 = getelementptr inbounds i8, ptr %0, i64 944
  %12 = getelementptr inbounds i8, ptr %0, i64 960
  tail call void @llvm.memset.p0.i64(ptr noundef nonnull align 8 dereferenceable(16) %11, i8 0, i64 16, i1 false)
  store i64 %1, ptr %12, align 8
  %13 = getelementptr inbounds i8, ptr %0, i64 968
  store i64 %2, ptr %13, align 8
  %14 = getelementptr inbounds i8, ptr %0, i64 976
  %15 = shl i32 %3, 4
  %16 = zext i32 %15 to i64
  store i64 %16, ptr %14, align 8
  %17 = getelementptr inbounds i8, ptr %0, i64 984
  store i32 -1, ptr %17, align 8
  %18 = getelementptr inbounds i8, ptr %0, i64 988
  store i32 %3, ptr %18, align 4
  %19 = getelementptr inbounds i8, ptr %0, i64 992
  store volatile i8 1, ptr %19, align 8
  ret void
}